; Function Attrs: mustprogress nofree norecurse nosync nounwind willreturn memory(argmem: write) uwtable
define hidden void @_ZN6Assimp3FBX10LazyObjectC2EmRKNS0_7ElementERKNS0_8DocumentE(ptr nocapture noundef nonnull writeonly align 8 dereferenceable(36) %this, i64 noundef %id, ptr noundef nonnull align 8 dereferenceable(40) %element, ptr noundef nonnull align 8 dereferenceable(336) %doc) unnamed_addr #0 align 2 personality ptr @__gxx_personality_v0 {
entry:
  store ptr %doc, ptr %this, align 8
  %element3 = getelementptr inbounds i8, ptr %this, i64 8
  store ptr %element, ptr %element3, align 8
  %object = getelementptr inbounds i8, ptr %this, i64 16
  store ptr null, ptr %object, align 8
  %id4 = getelementptr inbounds i8, ptr %this, i64 24
  store i64 %id, ptr %id4, align 8
  %flags = getelementptr inbounds i8, ptr %this, i64 32
  store i32 0, ptr %flags, align 8
  ret void
}